target datalayout = "e-m:e-p270:32:32-p271:32:32-p272:64:64-i64:64-i128:128-f80:128-n8:16:32:64-S128"
target triple = "x86_64-pc-linux-gnu"

%"class.xgboost::Metric" = type { %"struct.xgboost::Configurable", ptr }
%"struct.xgboost::Configurable" = type { ptr }
%"class.xgboost::MetricNoCache" = type { %"class.xgboost::Metric" }
%"struct.xgboost::DeviceOrd" = type { i16, i16 }
%"class.xgboost::HostDeviceVector" = type { ptr }
%"struct.std::_Vector_base.144" = type { %"struct.std::_Vector_base<float, std::allocator<float>>::_Vector_impl" }
%"struct.std::_Vector_base<float, std::allocator<float>>::_Vector_impl" = type { %"struct.std::_Vector_base<float, std::allocator<float>>::_Vector_impl_data" }
%"struct.std::_Vector_base<float, std::allocator<float>>::_Vector_impl_data" = type { ptr, ptr, ptr }
%"class.xgboost::metric::QuantileError" = type { %"class.xgboost::MetricNoCache", %"class.xgboost::HostDeviceVector", %"struct.xgboost::common::QuantileLossParam" }
%"struct.xgboost::common::QuantileLossParam" = type { %"struct.xgboost::XGBoostParameter.293", %"class.xgboost::common::ParamFloatArray" }
%"struct.xgboost::XGBoostParameter.293" = type { i8 }
%"class.xgboost::common::ParamFloatArray" = type { %"class.std::vector.143" }
%"class.std::vector.143" = type { %"struct.std::_Vector_base.144" }

@_ZTVN7xgboost12ConfigurableE = linkonce_odr unnamed_addr constant { [6 x ptr] } { [6 x ptr] [ptr null, ptr @_ZTIN7xgboost12ConfigurableE, ptr @_ZN7xgboost12ConfigurableD2Ev, ptr @_ZN7xgboost12ConfigurableD0Ev, ptr @__cxa_pure_virtual, ptr @__cxa_pure_virtual] }, comdat, align 8

; Function Attrs: mustprogress nounwind uwtable
define linkonce_odr void @_ZNSt15__new_allocatorIfEC2Ev(ptr noundef nonnull align 1 dereferenceable(1) %0) unnamed_addr #4 comdat align 2 {
  %2 = alloca ptr, align 8
  store ptr %0, ptr %2, align 8
  ret void
}

; Function Attrs: mustprogress nounwind uwtable
define linkonce_odr void @_ZNSt12_Vector_baseIfSaIfEE17_Vector_impl_dataC2Ev(ptr noundef nonnull align 8 dereferenceable(24) %0) unnamed_addr #4 comdat align 2 {
  %2 = alloca ptr, align 8
  store ptr %0, ptr %2, align 8
  %3 = load ptr, ptr %2, align 8
  %4 = getelementptr inbounds %"struct.std::_Vector_base<float, std::allocator<float>>::_Vector_impl_data", ptr %3, i32 0, i32 0
  store ptr null, ptr %4, align 8
  %5 = getelementptr inbounds %"struct.std::_Vector_base<float, std::allocator<float>>::_Vector_impl_data", ptr %3, i32 0, i32 1
  store ptr null, ptr %5, align 8
  %6 = getelementptr inbounds %"struct.std::_Vector_base<float, std::allocator<float>>::_Vector_impl_data", ptr %3, i32 0, i32 2
  store ptr null, ptr %6, align 8
  ret void
}

; Function Attrs: mustprogress nounwind uwtable
define linkonce_odr void @_ZNSaIfEC2Ev(ptr noundef nonnull align 1 dereferenceable(1) %0) unnamed_addr #4 comdat align 2 {
  %2 = alloca ptr, align 8
  store ptr %0, ptr %2, align 8
  %3 = load ptr, ptr %2, align 8
  call void @_ZNSt15__new_allocatorIfEC2Ev(ptr noundef nonnull align 1 dereferenceable(1) %3) #3
  ret void
}

; Function Attrs: mustprogress nounwind uwtable
define linkonce_odr void @_ZNSt12_Vector_baseIfSaIfEE12_Vector_implC2Ev(ptr noundef nonnull align 8 dereferenceable(24) %0) unnamed_addr #4 comdat align 2 {
  %2 = alloca ptr, align 8
  store ptr %0, ptr %2, align 8
  %3 = load ptr, ptr %2, align 8
  call void @_ZNSaIfEC2Ev(ptr noundef nonnull align 1 dereferenceable(1) %3) #3
  call void @_ZNSt12_Vector_baseIfSaIfEE17_Vector_impl_dataC2Ev(ptr noundef nonnull align 8 dereferenceable(24) %3) #3
  ret void
}

; Function Attrs: mustprogress nounwind uwtable
define linkonce_odr void @_ZNSt12_Vector_baseIfSaIfEEC2Ev(ptr noundef nonnull align 8 dereferenceable(24) %0) unnamed_addr #4 comdat align 2 {
  %2 = alloca ptr, align 8
  store ptr %0, ptr %2, align 8
  %3 = load ptr, ptr %2, align 8
  %4 = getelementptr inbounds %"struct.std::_Vector_base.144", ptr %3, i32 0, i32 0
  call void @_ZNSt12_Vector_baseIfSaIfEE12_Vector_implC2Ev(ptr noundef nonnull align 8 dereferenceable(24) %4) #3
  ret void
}

; Function Attrs: mustprogress nounwind uwtable
define linkonce_odr void @_ZN7xgboost12ConfigurableD2Ev(ptr noundef nonnull align 8 dereferenceable(8) %0) unnamed_addr #4 comdat align 2 {
  %2 = alloca ptr, align 8
  store ptr %0, ptr %2, align 8
  ret void
}

; Function Attrs: mustprogress nounwind uwtable
define linkonce_odr void @_ZNSt6vectorIfSaIfEEC2Ev(ptr noundef nonnull align 8 dereferenceable(24) %0) unnamed_addr #4 comdat align 2 {
  %2 = alloca ptr, align 8
  store ptr %0, ptr %2, align 8
  %3 = load ptr, ptr %2, align 8
  call void @_ZNSt12_Vector_baseIfSaIfEEC2Ev(ptr noundef nonnull align 8 dereferenceable(24) %3) #3
  ret void
}

; Function Attrs: mustprogress nounwind uwtable
define linkonce_odr void @_ZN7xgboost12ConfigurableC2Ev(ptr noundef nonnull align 8 dereferenceable(8) %0) unnamed_addr #4 comdat align 2 {
  %2 = alloca ptr, align 8
  store ptr %0, ptr %2, align 8
  %3 = load ptr, ptr %2, align 8
  store ptr getelementptr inbounds inrange(-16, 32) ({ [6 x ptr] }, ptr @_ZTVN7xgboost12ConfigurableE, i32 0, i32 0, i32 2), ptr %3, align 8
  ret void
}

; Function Attrs: mustprogress nounwind uwtable
define linkonce_odr void @_ZN7xgboost6MetricD2Ev(ptr noundef nonnull align 8 dereferenceable(16) %0) unnamed_addr #4 comdat align 2 {
  %2 = alloca ptr, align 8
  store ptr %0, ptr %2, align 8
  %3 = load ptr, ptr %2, align 8
  call void @_ZN7xgboost12ConfigurableD2Ev(ptr noundef nonnull align 8 dereferenceable(8) %3) #3
  ret void
}

; Function Attrs: mustprogress nounwind uwtable
define linkonce_odr void @_ZN7xgboost6common15ParamFloatArrayC2Ev(ptr noundef nonnull align 8 dereferenceable(24) %0) unnamed_addr #4 comdat align 2 {
  %2 = alloca ptr, align 8
  store ptr %0, ptr %2, align 8
  %3 = load ptr, ptr %2, align 8
  %4 = getelementptr inbounds %"class.xgboost::common::ParamFloatArray", ptr %3, i32 0, i32 0
  call void @_ZNSt6vectorIfSaIfEEC2Ev(ptr noundef nonnull align 8 dereferenceable(24) %4) #3
  ret void
}

; Function Attrs: mustprogress nounwind uwtable
define linkonce_odr void @_ZN7xgboost16XGBoostParameterINS_6common17QuantileLossParamEEC2Ev(ptr noundef nonnull align 1 dereferenceable(1) %0) unnamed_addr #4 comdat align 2 {
  %2 = alloca ptr, align 8
  store ptr %0, ptr %2, align 8
  %3 = load ptr, ptr %2, align 8
  %4 = getelementptr inbounds %"struct.xgboost::XGBoostParameter.293", ptr %3, i32 0, i32 0
  store i8 0, ptr %4, align 1
  ret void
}

; Function Attrs: mustprogress nounwind uwtable
define linkonce_odr void @_ZN7xgboost9DeviceOrdC2ENS0_4TypeEs(ptr noundef nonnull align 2 dereferenceable(4) %0, i16 noundef signext %1, i16 noundef signext %2) unnamed_addr #4 comdat align 2 {
  %4 = alloca ptr, align 8
  %5 = alloca i16, align 2
  %6 = alloca i16, align 2
  store ptr %0, ptr %4, align 8
  store i16 %1, ptr %5, align 2
  store i16 %2, ptr %6, align 2
  %7 = load ptr, ptr %4, align 8
  %8 = getelementptr inbounds %"struct.xgboost::DeviceOrd", ptr %7, i32 0, i32 0
  %9 = load i16, ptr %5, align 2
  store i16 %9, ptr %8, align 2
  %10 = getelementptr inbounds %"struct.xgboost::DeviceOrd", ptr %7, i32 0, i32 1
  %11 = load i16, ptr %6, align 2
  store i16 %11, ptr %10, align 2
  ret void
}

; Function Attrs: mustprogress nounwind uwtable
define linkonce_odr noundef signext i16 @_ZN7xgboost9DeviceOrd10CPUOrdinalEv() #4 comdat align 2 {
  ret i16 -1
}

; Function Attrs: mustprogress nounwind uwtable
define linkonce_odr void @_ZN7xgboost6MetricC2Ev(ptr noundef nonnull align 8 dereferenceable(16) %0) unnamed_addr #4 comdat align 2 {
  %2 = alloca ptr, align 8
  store ptr %0, ptr %2, align 8
  %3 = load ptr, ptr %2, align 8
  call void @_ZN7xgboost12ConfigurableC2Ev(ptr noundef nonnull align 8 dereferenceable(8) %3) #3
  store ptr getelementptr inbounds inrange(-16, 56) ({ [9 x ptr] }, ptr @_ZTVN7xgboost6MetricE, i32 0, i32 0, i32 2), ptr %3, align 8
  %4 = getelementptr inbounds %"class.xgboost::Metric", ptr %3, i32 0, i32 1
  store ptr null, ptr %4, align 8
  ret void
}

; Function Attrs: mustprogress nounwind uwtable
define linkonce_odr void @_ZN7xgboost13MetricNoCacheD2Ev(ptr noundef nonnull align 8 dereferenceable(16) %0) unnamed_addr #4 comdat align 2 {
  %2 = alloca ptr, align 8
  store ptr %0, ptr %2, align 8
  %3 = load ptr, ptr %2, align 8
  call void @_ZN7xgboost6MetricD2Ev(ptr noundef nonnull align 8 dereferenceable(16) %3) #3
  ret void
}

; Function Attrs: mustprogress nounwind uwtable
define linkonce_odr void @_ZN7xgboost6common17QuantileLossParamC2Ev(ptr noundef nonnull align 8 dereferenceable(32) %0) unnamed_addr #4 comdat align 2 {
  %2 = alloca ptr, align 8
  store ptr %0, ptr %2, align 8
  %3 = load ptr, ptr %2, align 8
  call void @_ZN7xgboost16XGBoostParameterINS_6common17QuantileLossParamEEC2Ev(ptr noundef nonnull align 1 dereferenceable(1) %3) #3
  %4 = getelementptr inbounds %"struct.xgboost::common::QuantileLossParam", ptr %3, i32 0, i32 1
  call void @_ZN7xgboost6common15ParamFloatArrayC2Ev(ptr noundef nonnull align 8 dereferenceable(24) %4) #3
  ret void
}

; Function Attrs: mustprogress uwtable
define linkonce_odr i32 @_ZN7xgboost9DeviceOrd3CPUEv() #5 comdat align 2 {
  %1 = alloca %"struct.xgboost::DeviceOrd", align 2
  %2 = call noundef signext i16 @_ZN7xgboost9DeviceOrd10CPUOrdinalEv()
  call void @_ZN7xgboost9DeviceOrdC2ENS0_4TypeEs(ptr noundef nonnull align 2 dereferenceable(4) %1, i16 noundef signext 0, i16 noundef signext %2)
  %3 = load i32, ptr %1, align 2
  ret i32 %3
}

; Function Attrs: mustprogress nounwind uwtable
define linkonce_odr void @_ZN7xgboost13MetricNoCacheC2Ev(ptr noundef nonnull align 8 dereferenceable(16) %0) unnamed_addr #4 comdat align 2 {
  %2 = alloca ptr, align 8
  store ptr %0, ptr %2, align 8
  %3 = load ptr, ptr %2, align 8
  call void @_ZN7xgboost6MetricC2Ev(ptr noundef nonnull align 8 dereferenceable(16) %3) #3
  store ptr getelementptr inbounds inrange(-16, 64) ({ [10 x ptr] }, ptr @_ZTVN7xgboost13MetricNoCacheE, i32 0, i32 0, i32 2), ptr %3, align 8
  ret void
}

; Function Attrs: mustprogress uwtable
define linkonce_odr void @_ZN7xgboost6metric13QuantileErrorC2Ev(ptr noundef nonnull align 8 dereferenceable(56) %0) unnamed_addr #5 comdat align 2 personality ptr @__gxx_personality_v0 {
  %2 = alloca ptr, align 8
  %3 = alloca %"struct.xgboost::DeviceOrd", align 2
  %4 = alloca ptr, align 8
  %5 = alloca i32, align 4
  store ptr %0, ptr %2, align 8
  %6 = load ptr, ptr %2, align 8
  call void @_ZN7xgboost13MetricNoCacheC2Ev(ptr noundef nonnull align 8 dereferenceable(16) %6) #3
  store ptr getelementptr inbounds inrange(-16, 64) ({ [10 x ptr] }, ptr @_ZTVN7xgboost6metric13QuantileErrorE, i32 0, i32 0, i32 2), ptr %6, align 8
  %7 = getelementptr inbounds %"class.xgboost::metric::QuantileError", ptr %6, i32 0, i32 1
  %8 = invoke i32 @_ZN7xgboost9DeviceOrd3CPUEv()
          to label %9 unwind label %13

9:                                                ; preds = %1
  store i32 %8, ptr %3, align 2
  %10 = load i32, ptr %3, align 2
  invoke void @_ZN7xgboost16HostDeviceVectorIfEC1EmfNS_9DeviceOrdE(ptr noundef nonnull align 8 dereferenceable(8) %7, i64 noundef 0, float noundef 0.000000e+00, i32 %10)
          to label %11 unwind label %13

11:                                               ; preds = %9
  %12 = getelementptr inbounds %"class.xgboost::metric::QuantileError", ptr %6, i32 0, i32 2
  call void @_ZN7xgboost6common17QuantileLossParamC2Ev(ptr noundef nonnull align 8 dereferenceable(32) %12) #3
  ret void

13:                                               ; preds = %9, %1
  %14 = landingpad { ptr, i32 }
          cleanup
  %15 = extractvalue { ptr, i32 } %14, 0
  store ptr %15, ptr %4, align 8
  %16 = extractvalue { ptr, i32 } %14, 1
  store i32 %16, ptr %5, align 4
  call void @_ZN7xgboost13MetricNoCacheD2Ev(ptr noundef nonnull align 8 dereferenceable(16) %6) #3
  br label %17

17:                                               ; preds = %13
  %18 = load ptr, ptr %4, align 8
  %19 = load i32, ptr %5, align 4
  %20 = insertvalue { ptr, i32 } poison, ptr %18, 0
  %21 = insertvalue { ptr, i32 } %20, i32 %19, 1
  resume { ptr, i32 } %21
}

; Function Attrs: mustprogress uwtable
define internal noundef ptr @"_ZNK7xgboost6metric4$_11clEPKc"(ptr noundef nonnull align 1 dereferenceable(1) %0, ptr noundef %1) #5 align 2 personality ptr @__gxx_personality_v0 {
  %3 = alloca ptr, align 8
  %4 = alloca ptr, align 8
  %5 = alloca ptr, align 8
  %6 = alloca i32, align 4
  store ptr %0, ptr %3, align 8
  store ptr %1, ptr %4, align 8
  %7 = call noalias noundef nonnull ptr @_Znwm(i64 noundef 56) #19
  call void @llvm.memset.p0.i64(ptr align 16 %7, i8 0, i64 56, i1 false)
  invoke void @_ZN7xgboost6metric13QuantileErrorC2Ev(ptr noundef nonnull align 8 dereferenceable(56) %7)
          to label %8 unwind label %9

8:                                                ; preds = %2
  ret ptr %7

9:                                                ; preds = %2
  %10 = landingpad { ptr, i32 }
          cleanup
  %11 = extractvalue { ptr, i32 } %10, 0
  store ptr %11, ptr %5, align 8
  %12 = extractvalue { ptr, i32 } %10, 1
  store i32 %12, ptr %6, align 4
  call void @_ZdlPvm(ptr noundef %7, i64 noundef 56) #22
  br label %13

13:                                               ; preds = %9
  %14 = load ptr, ptr %5, align 8
  %15 = load i32, ptr %6, align 4
  %16 = insertvalue { ptr, i32 } poison, ptr %14, 0
  %17 = insertvalue { ptr, i32 } %16, i32 %15, 1
  resume { ptr, i32 } %17
}

; Function Attrs: mustprogress nounwind uwtable
define linkonce_odr noundef ptr @_ZNKSt9_Any_data9_M_accessEv(ptr noundef nonnull align 8 dereferenceable(16) %0) #4 comdat align 2 {
  %2 = alloca ptr, align 8
  store ptr %0, ptr %2, align 8
  %3 = load ptr, ptr %2, align 8
  %4 = getelementptr inbounds [16 x i8], ptr %3, i64 0, i64 0
  ret ptr %4
}

; Function Attrs: mustprogress uwtable
define internal noundef ptr @"_ZSt13__invoke_implIPN7xgboost6metric13QuantileErrorERNS1_4$_11EJPKcEET_St14__invoke_otherOT0_DpOT1_"(ptr noundef nonnull align 1 dereferenceable(1) %0, ptr noundef nonnull align 8 dereferenceable(8) %1) #5 {
  %3 = alloca ptr, align 8
  %4 = alloca ptr, align 8
  store ptr %0, ptr %3, align 8
  store ptr %1, ptr %4, align 8
  %5 = load ptr, ptr %3, align 8
  %6 = load ptr, ptr %4, align 8
  %7 = load ptr, ptr %6, align 8
  %8 = call noundef ptr @"_ZNK7xgboost6metric4$_11clEPKc"(ptr noundef nonnull align 1 dereferenceable(1) %5, ptr noundef %7)
  ret ptr %8
}

; Function Attrs: mustprogress nounwind uwtable
define internal noundef nonnull align 1 dereferenceable(1) ptr @"_ZNKSt9_Any_data9_M_accessIN7xgboost6metric4$_11EEERKT_v"(ptr noundef nonnull align 8 dereferenceable(16) %0) #4 align 2 {
  %2 = alloca ptr, align 8
  store ptr %0, ptr %2, align 8
  %3 = load ptr, ptr %2, align 8
  %4 = call noundef ptr @_ZNKSt9_Any_data9_M_accessEv(ptr noundef nonnull align 8 dereferenceable(16) %3) #3
  ret ptr %4
}

; Function Attrs: mustprogress uwtable
define internal noundef ptr @"_ZSt10__invoke_rIPN7xgboost6MetricERNS0_6metric4$_11EJPKcEENSt9enable_ifIX16is_invocable_r_vIT_T0_DpT1_EES9_E4typeEOSA_DpOSB_"(ptr noundef nonnull align 1 dereferenceable(1) %0, ptr noundef nonnull align 8 dereferenceable(8) %1) #5 {
  %3 = alloca ptr, align 8
  %4 = alloca ptr, align 8
  store ptr %0, ptr %3, align 8
  store ptr %1, ptr %4, align 8
  %5 = load ptr, ptr %3, align 8
  %6 = load ptr, ptr %4, align 8
  %7 = call noundef ptr @"_ZSt13__invoke_implIPN7xgboost6metric13QuantileErrorERNS1_4$_11EJPKcEET_St14__invoke_otherOT0_DpOT1_"(ptr noundef nonnull align 1 dereferenceable(1) %5, ptr noundef nonnull align 8 dereferenceable(8) %6)
  ret ptr %7
}

; Function Attrs: mustprogress nounwind uwtable
define internal noundef ptr @"_ZNSt14_Function_base13_Base_managerIN7xgboost6metric4$_11EE14_M_get_pointerERKSt9_Any_data"(ptr noundef nonnull align 8 dereferenceable(16) %0) #4 align 2 {
  %2 = alloca ptr, align 8
  %3 = alloca ptr, align 8
  store ptr %0, ptr %2, align 8
  %4 = load ptr, ptr %2, align 8
  %5 = call noundef nonnull align 1 dereferenceable(1) ptr @"_ZNKSt9_Any_data9_M_accessIN7xgboost6metric4$_11EEERKT_v"(ptr noundef nonnull align 8 dereferenceable(16) %4) #3
  store ptr %5, ptr %3, align 8
  %6 = load ptr, ptr %3, align 8
  ret ptr %6
}

; Function Attrs: mustprogress uwtable
define internal noundef ptr @"_ZNSt17_Function_handlerIFPN7xgboost6MetricEPKcENS0_6metric4$_11EE9_M_invokeERKSt9_Any_dataOS4_"(ptr noundef nonnull align 8 dereferenceable(16) %0, ptr noundef nonnull align 8 dereferenceable(8) %1) #5 align 2 {
  %3 = alloca ptr, align 8
  %4 = alloca ptr, align 8
  store ptr %0, ptr %3, align 8
  store ptr %1, ptr %4, align 8
  %5 = load ptr, ptr %3, align 8
  %6 = call noundef ptr @"_ZNSt14_Function_base13_Base_managerIN7xgboost6metric4$_11EE14_M_get_pointerERKSt9_Any_data"(ptr noundef nonnull align 8 dereferenceable(16) %5) #3
  %7 = load ptr, ptr %4, align 8
  %8 = call noundef ptr @"_ZSt10__invoke_rIPN7xgboost6MetricERNS0_6metric4$_11EJPKcEENSt9enable_ifIX16is_invocable_r_vIT_T0_DpT1_EES9_E4typeEOSA_DpOSB_"(ptr noundef nonnull align 1 dereferenceable(1) %6, ptr noundef nonnull align 8 dereferenceable(8) %7)
  ret ptr %8
}