; Function Attrs: mustprogress uwtable
define internal noundef nonnull ptr @"_ZNSt17_Function_handlerIFPN7xgboost6MetricEPKcENS0_6metric4$_11EE9_M_invokeERKSt9_Any_dataOS4_"(ptr nocapture nonnull readnone align 8 %0, ptr nocapture nonnull readnone align 8 %1) #4 align 2 personality ptr @__gxx_personality_v0 {
  %3 = tail call noalias noundef nonnull dereferenceable(56) ptr @_Znwm(i64 noundef 56) #29
  tail call void @llvm.memset.p0.i64(ptr noundef nonnull align 16 dereferenceable(56) %3, i8 0, i64 56, i1 false)
  store ptr getelementptr inbounds inrange(-16, 64) (i8, ptr @_ZTVN7xgboost6metric13QuantileErrorE, i64 16), ptr %3, align 8
  %4 = getelementptr inbounds i8, ptr %3, i64 16
  invoke void @_ZN7xgboost16HostDeviceVectorIfEC1EmfNS_9DeviceOrdE(ptr noundef nonnull align 8 dereferenceable(8) %4, i64 noundef 0, float noundef 0.000000e+00, i32 -65536)
          to label %"_ZSt10__invoke_rIPN7xgboost6MetricERNS0_6metric4$_11EJPKcEENSt9enable_ifIX16is_invocable_r_vIT_T0_DpT1_EES9_E4typeEOSA_DpOSB_.exit" unwind label %5

5:                                                ; preds = %2
  %6 = landingpad { ptr, i32 }
          cleanup
  tail call void @_ZdlPvm(ptr noundef nonnull %3, i64 noundef 56) #30
  resume { ptr, i32 } %6

"_ZSt10__invoke_rIPN7xgboost6MetricERNS0_6metric4$_11EJPKcEENSt9enable_ifIX16is_invocable_r_vIT_T0_DpT1_EES9_E4typeEOSA_DpOSB_.exit": ; preds = %2
  %7 = getelementptr inbounds i8, ptr %3, i64 24
  store i8 0, ptr %7, align 1
  %8 = getelementptr inbounds i8, ptr %3, i64 32
  tail call void @llvm.memset.p0.i64(ptr noundef nonnull align 8 dereferenceable(24) %8, i8 0, i64 24, i1 false)
  ret ptr %3
}